target datalayout = "e-m:e-p270:32:32-p271:32:32-p272:64:64-i64:64-i128:128-f80:128-n8:16:32:64-S128"
target triple = "x86_64-pc-linux-gnu"

%"class.zmq::v2_decoder_t" = type { %"class.zmq::decoder_base_t", [8 x i8], i8, %"class.zmq::msg_t", i8, i64 }
%"class.zmq::decoder_base_t" = type { %"class.zmq::i_decoder", { i64, i64 }, ptr, i64, %"class.zmq::shared_message_memory_allocator", ptr }
%"class.zmq::i_decoder" = type { ptr }
%"class.zmq::shared_message_memory_allocator" = type { ptr, i64, i64, ptr, i64 }
%"class.zmq::msg_t" = type { %union.anon }
%union.anon = type { %struct.anon }
%struct.anon = type { ptr, [34 x i8], i8, i8, i32, %"union.zmq::msg_t::group_t" }
%"union.zmq::msg_t::group_t" = type { %struct.anon.1 }
%struct.anon.1 = type { i8, ptr }

; Function Attrs: mustprogress nounwind uwtable
define linkonce_odr void @_ZN3zmq14decoder_base_tINS_12v2_decoder_tENS_31shared_message_memory_allocatorEE9next_stepEPvmMS1_FiPKhE(ptr noundef nonnull align 8 dereferenceable(88) %0, ptr noundef %1, i64 noundef %2, i64 %3, i64 %4) #6 comdat align 2 {
  %6 = alloca { i64, i64 }, align 8
  %7 = alloca ptr, align 8
  %8 = alloca ptr, align 8
  %9 = alloca i64, align 8
  %10 = alloca { i64, i64 }, align 8
  %11 = getelementptr inbounds nuw { i64, i64 }, ptr %6, i32 0, i32 0
  store i64 %3, ptr %11, align 8
  %12 = getelementptr inbounds nuw { i64, i64 }, ptr %6, i32 0, i32 1
  store i64 %4, ptr %12, align 8
  %13 = load { i64, i64 }, ptr %6, align 8, !tbaa !31
  store ptr %0, ptr %7, align 8, !tbaa !32
  store ptr %1, ptr %8, align 8, !tbaa !38
  store i64 %2, ptr %9, align 8, !tbaa !8
  store { i64, i64 } %13, ptr %10, align 8, !tbaa !31
  %14 = load ptr, ptr %7, align 8
  %15 = load ptr, ptr %8, align 8, !tbaa !38
  %16 = getelementptr inbounds nuw %"class.zmq::decoder_base_t", ptr %14, i32 0, i32 2
  store ptr %15, ptr %16, align 8, !tbaa !35
  %17 = load i64, ptr %9, align 8, !tbaa !8
  %18 = getelementptr inbounds nuw %"class.zmq::decoder_base_t", ptr %14, i32 0, i32 3
  store i64 %17, ptr %18, align 8, !tbaa !36
  %19 = load { i64, i64 }, ptr %10, align 8, !tbaa !31
  %20 = getelementptr inbounds nuw %"class.zmq::decoder_base_t", ptr %14, i32 0, i32 1
  store { i64, i64 } %19, ptr %20, align 8, !tbaa !34
  ret void
}

; Function Attrs: mustprogress uwtable
define noundef i32 @_ZN3zmq12v2_decoder_t11flags_readyEPKh(ptr noundef nonnull align 8 dereferenceable(184) %0, ptr noundef %1) #0 align 2 {
  %3 = alloca ptr, align 8
  %4 = alloca ptr, align 8
  %5 = alloca { i64, i64 }, align 8
  %6 = alloca { i64, i64 }, align 8
  store ptr %0, ptr %3, align 8, !tbaa !3
  store ptr %1, ptr %4, align 8, !tbaa !28
  %7 = load ptr, ptr %3, align 8
  %8 = getelementptr inbounds nuw %"class.zmq::v2_decoder_t", ptr %7, i32 0, i32 2
  store i8 0, ptr %8, align 8, !tbaa !14
  %9 = getelementptr inbounds nuw %"class.zmq::v2_decoder_t", ptr %7, i32 0, i32 1
  %10 = getelementptr inbounds [8 x i8], ptr %9, i64 0, i64 0
  %11 = load i8, ptr %10, align 8, !tbaa !31
  %12 = zext i8 %11 to i32
  %13 = and i32 %12, 1
  %14 = icmp ne i32 %13, 0
  br i1 %14, label %15, label %21

15:                                               ; preds = %2
  %16 = getelementptr inbounds nuw %"class.zmq::v2_decoder_t", ptr %7, i32 0, i32 2
  %17 = load i8, ptr %16, align 8, !tbaa !14
  %18 = zext i8 %17 to i32
  %19 = or i32 %18, 1
  %20 = trunc i32 %19 to i8
  store i8 %20, ptr %16, align 8, !tbaa !14
  br label %21

21:                                               ; preds = %15, %2
  %22 = getelementptr inbounds nuw %"class.zmq::v2_decoder_t", ptr %7, i32 0, i32 1
  %23 = getelementptr inbounds [8 x i8], ptr %22, i64 0, i64 0
  %24 = load i8, ptr %23, align 8, !tbaa !31
  %25 = zext i8 %24 to i32
  %26 = and i32 %25, 4
  %27 = icmp ne i32 %26, 0
  br i1 %27, label %28, label %34

28:                                               ; preds = %21
  %29 = getelementptr inbounds nuw %"class.zmq::v2_decoder_t", ptr %7, i32 0, i32 2
  %30 = load i8, ptr %29, align 8, !tbaa !14
  %31 = zext i8 %30 to i32
  %32 = or i32 %31, 2
  %33 = trunc i32 %32 to i8
  store i8 %33, ptr %29, align 8, !tbaa !14
  br label %34

34:                                               ; preds = %28, %21
  %35 = getelementptr inbounds nuw %"class.zmq::v2_decoder_t", ptr %7, i32 0, i32 1
  %36 = getelementptr inbounds [8 x i8], ptr %35, i64 0, i64 0
  %37 = load i8, ptr %36, align 8, !tbaa !31
  %38 = zext i8 %37 to i32
  %39 = and i32 %38, 2
  %40 = icmp ne i32 %39, 0
  br i1 %40, label %41, label %48

41:                                               ; preds = %34
  %42 = getelementptr inbounds nuw %"class.zmq::v2_decoder_t", ptr %7, i32 0, i32 1
  %43 = getelementptr inbounds [8 x i8], ptr %42, i64 0, i64 0
  store { i64, i64 } { i64 ptrtoint (ptr @_ZN3zmq12v2_decoder_t21eight_byte_size_readyEPKh to i64), i64 0 }, ptr %5, align 8, !tbaa !31
  %44 = getelementptr inbounds nuw { i64, i64 }, ptr %5, i32 0, i32 0
  %45 = load i64, ptr %44, align 8
  %46 = getelementptr inbounds nuw { i64, i64 }, ptr %5, i32 0, i32 1
  %47 = load i64, ptr %46, align 8
  call void @_ZN3zmq14decoder_base_tINS_12v2_decoder_tENS_31shared_message_memory_allocatorEE9next_stepEPvmMS1_FiPKhE(ptr noundef nonnull align 8 dereferenceable(88) %7, ptr noundef %43, i64 noundef 8, i64 %45, i64 %47)
  br label %55

48:                                               ; preds = %34
  %49 = getelementptr inbounds nuw %"class.zmq::v2_decoder_t", ptr %7, i32 0, i32 1
  %50 = getelementptr inbounds [8 x i8], ptr %49, i64 0, i64 0
  store { i64, i64 } { i64 ptrtoint (ptr @_ZN3zmq12v2_decoder_t19one_byte_size_readyEPKh to i64), i64 0 }, ptr %6, align 8, !tbaa !31
  %51 = getelementptr inbounds nuw { i64, i64 }, ptr %6, i32 0, i32 0
  %52 = load i64, ptr %51, align 8
  %53 = getelementptr inbounds nuw { i64, i64 }, ptr %6, i32 0, i32 1
  %54 = load i64, ptr %53, align 8
  call void @_ZN3zmq14decoder_base_tINS_12v2_decoder_tENS_31shared_message_memory_allocatorEE9next_stepEPvmMS1_FiPKhE(ptr noundef nonnull align 8 dereferenceable(88) %7, ptr noundef %50, i64 noundef 1, i64 %52, i64 %54)
  br label %55

55:                                               ; preds = %48, %41
  ret i32 0
}